target datalayout = "e-m:e-p270:32:32-p271:32:32-p272:64:64-i64:64-i128:128-f80:128-n8:16:32:64-S128"
target triple = "x86_64-pc-linux-gnu"

%union.pthread_mutex_t = type { %struct.__pthread_mutex_s }
%struct.__pthread_mutex_s = type { i32, i32, i32, i32, i32, i16, i16, %struct.__pthread_internal_list }
%struct.__pthread_internal_list = type { ptr, ptr }
%struct.acct_gather_profile_timer_t = type { i32, i64, %union.pthread_cond_t, %union.pthread_mutex_t }
%union.pthread_cond_t = type { %struct.__pthread_cond_s }
%struct.__pthread_cond_s = type { %union.__atomic_wide_counter, %union.__atomic_wide_counter, [2 x i32], [2 x i32], i32, i32, [2 x i32] }
%union.__atomic_wide_counter = type { i64 }
%struct.slurm_acct_gather_energy_ops = type { ptr, ptr, ptr, ptr, ptr, ptr }

@g_context_lock = internal global %union.pthread_mutex_t zeroinitializer, align 8
@.str.1 = private unnamed_addr constant [29 x i8] c"%s: pthread_mutex_lock(): %m\00", align 1
@g_context_num = internal global i32 -1, align 4
@ops = internal global ptr null, align 8
@.str.3 = private unnamed_addr constant [21 x i8] c"acct_gather_energy.c\00", align 1
@g_context = internal global ptr null, align 8
@init_run = internal global i8 0, align 1
@.str.7 = private unnamed_addr constant [31 x i8] c"%s: pthread_mutex_unlock(): %m\00", align 1
@profile_timer = internal global ptr @acct_gather_profile_timer, align 8
@.str.26 = private unnamed_addr constant [13 x i8] c"acctg_energy\00", align 1
@.str.27 = private unnamed_addr constant [32 x i8] c"%s: cannot set my name to %s %m\00", align 1
@__func__._watch_node = private unnamed_addr constant [12 x i8] c"_watch_node\00", align 1
@.str.28 = private unnamed_addr constant [34 x i8] c"%s:%d %s: pthread_cond_wait(): %m\00", align 1

; Function Attrs: nounwind uwtable
define internal ptr @_watch_node(ptr noundef %0) #0 {
  %2 = alloca ptr, align 8
  %3 = alloca i32, align 4
  %4 = alloca i32, align 4
  %5 = alloca i32, align 4
  %6 = alloca i32, align 4
  %7 = alloca i32, align 4
  %8 = alloca i32, align 4
  %9 = alloca i32, align 4
  store ptr %0, ptr %2, align 8
  call void @llvm.lifetime.start.p0(i64 4, ptr %3) #7
  %10 = load ptr, ptr @profile_timer, align 8
  %11 = getelementptr inbounds nuw %struct.acct_gather_profile_timer_t, ptr %10, i32 0, i32 0
  %12 = load i32, ptr %11, align 8
  %13 = sub nsw i32 %12, 1
  store i32 %13, ptr %3, align 4
  %14 = call i32 (i32, ...) @prctl(i32 noundef 15, ptr noundef @.str.26, ptr noundef null, ptr noundef null, ptr noundef null) #7
  %15 = icmp slt i32 %14, 0
  br i1 %15, label %16, label %18

16:                                               ; preds = %1
  %17 = call i32 (ptr, ...) @error(ptr noundef @.str.27, ptr noundef @__func__._watch_node, ptr noundef @.str.26)
  br label %18

18:                                               ; preds = %16, %1
  br label %19

19:                                               ; preds = %110, %18
  %20 = load i8, ptr @init_run, align 1, !range !11, !noundef !12
  %21 = trunc i8 %20 to i1
  br i1 %21, label %22, label %24

22:                                               ; preds = %19
  %23 = call zeroext i1 @acct_gather_profile_test()
  br label %24

24:                                               ; preds = %22, %19
  %25 = phi i1 [ false, %19 ], [ %23, %22 ]
  br i1 %25, label %26, label %111

26:                                               ; preds = %24
  br label %27

27:                                               ; preds = %26
  call void @llvm.lifetime.start.p0(i64 4, ptr %4) #7
  %28 = call i32 @pthread_mutex_lock(ptr noundef @g_context_lock) #7
  store i32 %28, ptr %4, align 4
  %29 = load i32, ptr %4, align 4
  %30 = icmp ne i32 %29, 0
  br i1 %30, label %31, label %34

31:                                               ; preds = %27
  %32 = load i32, ptr %4, align 4
  %33 = call ptr @__errno_location() #8
  store i32 %32, ptr %33, align 4
  call void (ptr, ...) @fatal_abort(ptr noundef @.str.1, ptr noundef @__func__._watch_node) #9
  unreachable

34:                                               ; preds = %27
  call void @llvm.lifetime.end.p0(i64 4, ptr %4) #7
  br label %35

35:                                               ; preds = %34
  br label %36

36:                                               ; preds = %35
  call void @llvm.lifetime.start.p0(i64 4, ptr %5) #7
  store i32 0, ptr %5, align 4
  br label %37

37:                                               ; preds = %58, %36
  %38 = load i32, ptr %5, align 4
  %39 = load i32, ptr @g_context_num, align 4
  %40 = icmp slt i32 %38, %39
  br i1 %40, label %42, label %41

41:                                               ; preds = %37
  call void @llvm.lifetime.end.p0(i64 4, ptr %5) #7
  br label %61

42:                                               ; preds = %37
  %43 = load ptr, ptr @g_context, align 8
  %44 = load i32, ptr %5, align 4
  %45 = sext i32 %44 to i64
  %46 = getelementptr inbounds ptr, ptr %43, i64 %45
  %47 = load ptr, ptr %46, align 8
  %48 = icmp ne ptr %47, null
  br i1 %48, label %50, label %49

49:                                               ; preds = %42
  br label %58

50:                                               ; preds = %42
  %51 = load ptr, ptr @ops, align 8
  %52 = load i32, ptr %5, align 4
  %53 = sext i32 %52 to i64
  %54 = getelementptr inbounds %struct.slurm_acct_gather_energy_ops, ptr %51, i64 %53
  %55 = getelementptr inbounds nuw %struct.slurm_acct_gather_energy_ops, ptr %54, i32 0, i32 2
  %56 = load ptr, ptr %55, align 8
  %57 = call i32 %56(i32 noundef 3, ptr noundef %3)
  br label %58

58:                                               ; preds = %50, %49
  %59 = load i32, ptr %5, align 4
  %60 = add nsw i32 %59, 1
  store i32 %60, ptr %5, align 4
  br label %37, !llvm.loop !17

61:                                               ; preds = %41
  br label %62

62:                                               ; preds = %61
  call void @llvm.lifetime.start.p0(i64 4, ptr %6) #7
  %63 = call i32 @pthread_mutex_unlock(ptr noundef @g_context_lock) #7
  store i32 %63, ptr %6, align 4
  %64 = load i32, ptr %6, align 4
  %65 = icmp ne i32 %64, 0
  br i1 %65, label %66, label %69

66:                                               ; preds = %62
  %67 = load i32, ptr %6, align 4
  %68 = call ptr @__errno_location() #8
  store i32 %67, ptr %68, align 4
  call void (ptr, ...) @fatal_abort(ptr noundef @.str.7, ptr noundef @__func__._watch_node) #9
  unreachable

69:                                               ; preds = %62
  call void @llvm.lifetime.end.p0(i64 4, ptr %6) #7
  br label %70

70:                                               ; preds = %69
  br label %71

71:                                               ; preds = %70
  br label %72

72:                                               ; preds = %71
  call void @llvm.lifetime.start.p0(i64 4, ptr %7) #7
  %73 = load ptr, ptr @profile_timer, align 8
  %74 = getelementptr inbounds nuw %struct.acct_gather_profile_timer_t, ptr %73, i32 0, i32 3
  %75 = call i32 @pthread_mutex_lock(ptr noundef %74) #7
  store i32 %75, ptr %7, align 4
  %76 = load i32, ptr %7, align 4
  %77 = icmp ne i32 %76, 0
  br i1 %77, label %78, label %81

78:                                               ; preds = %72
  %79 = load i32, ptr %7, align 4
  %80 = call ptr @__errno_location() #8
  store i32 %79, ptr %80, align 4
  call void (ptr, ...) @fatal_abort(ptr noundef @.str.1, ptr noundef @__func__._watch_node) #9
  unreachable

81:                                               ; preds = %72
  call void @llvm.lifetime.end.p0(i64 4, ptr %7) #7
  br label %82

82:                                               ; preds = %81
  br label %83

83:                                               ; preds = %82
  br label %84

84:                                               ; preds = %83
  call void @llvm.lifetime.start.p0(i64 4, ptr %8) #7
  %85 = load ptr, ptr @profile_timer, align 8
  %86 = getelementptr inbounds nuw %struct.acct_gather_profile_timer_t, ptr %85, i32 0, i32 2
  %87 = load ptr, ptr @profile_timer, align 8
  %88 = getelementptr inbounds nuw %struct.acct_gather_profile_timer_t, ptr %87, i32 0, i32 3
  %89 = call i32 @pthread_cond_wait(ptr noundef %86, ptr noundef %88)
  store i32 %89, ptr %8, align 4
  %90 = load i32, ptr %8, align 4
  %91 = icmp ne i32 %90, 0
  br i1 %91, label %92, label %96

92:                                               ; preds = %84
  %93 = load i32, ptr %8, align 4
  %94 = call ptr @__errno_location() #8
  store i32 %93, ptr %94, align 4
  %95 = call i32 (ptr, ...) @error(ptr noundef @.str.28, ptr noundef @.str.3, i32 noundef 123, ptr noundef @__func__._watch_node)
  br label %96

96:                                               ; preds = %92, %84
  call void @llvm.lifetime.end.p0(i64 4, ptr %8) #7
  br label %97

97:                                               ; preds = %96
  br label %98

98:                                               ; preds = %97
  br label %99

99:                                               ; preds = %98
  call void @llvm.lifetime.start.p0(i64 4, ptr %9) #7
  %100 = load ptr, ptr @profile_timer, align 8
  %101 = getelementptr inbounds nuw %struct.acct_gather_profile_timer_t, ptr %100, i32 0, i32 3
  %102 = call i32 @pthread_mutex_unlock(ptr noundef %101) #7
  store i32 %102, ptr %9, align 4
  %103 = load i32, ptr %9, align 4
  %104 = icmp ne i32 %103, 0
  br i1 %104, label %105, label %108

105:                                              ; preds = %99
  %106 = load i32, ptr %9, align 4
  %107 = call ptr @__errno_location() #8
  store i32 %106, ptr %107, align 4
  call void (ptr, ...) @fatal_abort(ptr noundef @.str.7, ptr noundef @__func__._watch_node) #9
  unreachable

108:                                              ; preds = %99
  call void @llvm.lifetime.end.p0(i64 4, ptr %9) #7
  br label %109

109:                                              ; preds = %108
  br label %110

110:                                              ; preds = %109
  br label %19, !llvm.loop !18

111:                                              ; preds = %24
  call void @llvm.lifetime.end.p0(i64 4, ptr %3) #7
  ret ptr null
}