; Function Attrs: nounwind uwtable
define internal noundef ptr @_watch_node(ptr readnone captures(none) %0) #0 {
  %2 = alloca i32, align 4
  call void @llvm.lifetime.start.p0(i64 4, ptr nonnull %2) #8
  %3 = load i32, ptr @acct_gather_profile_timer, align 16
  %4 = add nsw i32 %3, -1
  store i32 %4, ptr %2, align 4
  %5 = tail call i32 (i32, ...) @prctl(i32 noundef 15, ptr noundef nonnull @.str.26, ptr noundef null, ptr noundef null, ptr noundef null) #8
  %6 = icmp slt i32 %5, 0
  br i1 %6, label %7, label %.preheader65

7:                                                ; preds = %1
  %8 = tail call i32 (ptr, ...) @error(ptr noundef nonnull @.str.27, ptr noundef nonnull @__func__._watch_node, ptr noundef nonnull @.str.26) #8
  br label %.preheader65

.preheader65:                                     ; preds = %7, %1
  br label %9

9:                                                ; preds = %.preheader65, %44
  %.b19 = load i1, ptr @init_run, align 1
  br i1 %.b19, label %10, label %.critedge

10:                                               ; preds = %9
  %11 = call zeroext i1 @acct_gather_profile_test() #8
  br i1 %11, label %12, label %.critedge

12:                                               ; preds = %10
  %13 = call i32 @pthread_mutex_lock(ptr noundef nonnull @g_context_lock) #8
  %.not = icmp eq i32 %13, 0
  br i1 %.not, label %.preheader, label %16

.preheader:                                       ; preds = %12
  %14 = load i32, ptr @g_context_num, align 4
  %15 = icmp sgt i32 %14, 0
  br i1 %15, label %.lr.ph.preheader, label %._crit_edge

.lr.ph.preheader:                                 ; preds = %.preheader
  %.pre45 = load ptr, ptr @g_context, align 8
  br label %.lr.ph

16:                                               ; preds = %12
  %17 = tail call ptr @__errno_location() #9
  store i32 %13, ptr %17, align 4
  call void (ptr, ...) @fatal_abort(ptr noundef nonnull @.str.1, ptr noundef nonnull @__func__._watch_node) #10
  unreachable

._crit_edge:                                      ; preds = %28, %.preheader
  %18 = call i32 @pthread_mutex_unlock(ptr noundef nonnull @g_context_lock) #8
  %.not20 = icmp eq i32 %18, 0
  br i1 %.not20, label %35, label %33

.lr.ph:                                           ; preds = %.lr.ph.preheader, %28
  %19 = phi i32 [ %14, %.lr.ph.preheader ], [ %29, %28 ]
  %20 = phi ptr [ %.pre45, %.lr.ph.preheader ], [ %30, %28 ]
  %indvars.iv = phi i64 [ 0, %.lr.ph.preheader ], [ %indvars.iv.next, %28 ]
  %21 = getelementptr inbounds nuw ptr, ptr %20, i64 %indvars.iv
  %22 = load ptr, ptr %21, align 8
  %.not24 = icmp eq ptr %22, null
  br i1 %.not24, label %28, label %23

23:                                               ; preds = %.lr.ph
  %24 = load ptr, ptr @ops, align 8
  %25 = getelementptr inbounds nuw %struct.slurm_acct_gather_energy_ops, ptr %24, i64 %indvars.iv, i32 2
  %26 = load ptr, ptr %25, align 8
  %27 = call i32 %26(i32 noundef 3, ptr noundef nonnull %2) #8
  %.pre = load ptr, ptr @g_context, align 8
  %.pre46 = load i32, ptr @g_context_num, align 4
  br label %28

28:                                               ; preds = %.lr.ph, %23
  %29 = phi i32 [ %19, %.lr.ph ], [ %.pre46, %23 ]
  %30 = phi ptr [ %20, %.lr.ph ], [ %.pre, %23 ]
  %indvars.iv.next = add nuw nsw i64 %indvars.iv, 1
  %31 = sext i32 %29 to i64
  %32 = icmp slt i64 %indvars.iv.next, %31
  br i1 %32, label %.lr.ph, label %._crit_edge, !llvm.loop !15

33:                                               ; preds = %._crit_edge
  %34 = tail call ptr @__errno_location() #9
  store i32 %18, ptr %34, align 4
  call void (ptr, ...) @fatal_abort(ptr noundef nonnull @.str.7, ptr noundef nonnull @__func__._watch_node) #10
  unreachable

35:                                               ; preds = %._crit_edge
  %36 = call i32 @pthread_mutex_lock(ptr noundef nonnull getelementptr inbounds nuw (i8, ptr @acct_gather_profile_timer, i64 64)) #8
  %.not21 = icmp eq i32 %36, 0
  br i1 %.not21, label %39, label %37

37:                                               ; preds = %35
  %38 = tail call ptr @__errno_location() #9
  store i32 %36, ptr %38, align 4
  call void (ptr, ...) @fatal_abort(ptr noundef nonnull @.str.1, ptr noundef nonnull @__func__._watch_node) #10
  unreachable

39:                                               ; preds = %35
  %40 = call i32 @pthread_cond_wait(ptr noundef nonnull getelementptr inbounds nuw (i8, ptr @acct_gather_profile_timer, i64 16), ptr noundef nonnull getelementptr inbounds nuw (i8, ptr @acct_gather_profile_timer, i64 64)) #8
  %.not22 = icmp eq i32 %40, 0
  br i1 %.not22, label %44, label %41

41:                                               ; preds = %39
  %42 = tail call ptr @__errno_location() #9
  store i32 %40, ptr %42, align 4
  %43 = call i32 (ptr, ...) @error(ptr noundef nonnull @.str.28, ptr noundef nonnull @.str.3, i32 noundef 123, ptr noundef nonnull @__func__._watch_node) #8
  br label %44

44:                                               ; preds = %41, %39
  %45 = call i32 @pthread_mutex_unlock(ptr noundef nonnull getelementptr inbounds nuw (i8, ptr @acct_gather_profile_timer, i64 64)) #8
  %.not23 = icmp eq i32 %45, 0
  br i1 %.not23, label %9, label %46, !llvm.loop !16

46:                                               ; preds = %44
  %47 = tail call ptr @__errno_location() #9
  store i32 %45, ptr %47, align 4
  call void (ptr, ...) @fatal_abort(ptr noundef nonnull @.str.7, ptr noundef nonnull @__func__._watch_node) #10
  unreachable

.critedge:                                        ; preds = %9, %10
  call void @llvm.lifetime.end.p0(i64 4, ptr nonnull %2) #8
  ret ptr null
}